target datalayout = "e-m:e-p270:32:32-p271:32:32-p272:64:64-i64:64-i128:128-f80:128-n8:16:32:64-S128"
target triple = "x86_64-unknown-linux-gnu"

%struct.TPMPassthruState = type { %struct.TPMBackend, ptr, ptr, i32, i8, i8, i32, i32, i64 }
%struct.TPMBackend = type { %struct.Object, ptr, i8, i8, ptr, ptr, %struct.anon }
%struct.Object = type { ptr, ptr, ptr, i32, ptr }
%struct.anon = type { ptr, ptr }
%struct.TPMBackendCmd = type { i8, ptr, i32, ptr, i32, i8 }
%struct.timeval = type { i64, i64 }

@.str = private unnamed_addr constant [16 x i8] c"tpm-passthrough\00", align 1
@.str.2 = private unnamed_addr constant [39 x i8] c"../qemu/backends/tpm/tpm_passthrough.c\00", align 1
@__func__.TPM_PASSTHROUGH = private unnamed_addr constant [16 x i8] c"TPM_PASSTHROUGH\00", align 1
@trace_events_enabled_count = external global i32, align 4
@message_with_timestamp = external global i8, align 1
@qemu_loglevel = external global i32, align 4
@_TRACE_TPM_PASSTHROUGH_HANDLE_REQUEST_DSTATE = external global i16, align 2
@.str.25 = private unnamed_addr constant [67 x i8] c"%d@%zu.%06zu:tpm_passthrough_handle_request processing command %p\0A\00", align 1
@.str.26 = private unnamed_addr constant [54 x i8] c"tpm_passthrough_handle_request processing command %p\0A\00", align 1
@__func__.tpm_passthrough_unix_tx_bufs = private unnamed_addr constant [29 x i8] c"tpm_passthrough_unix_tx_bufs\00", align 1
@.str.27 = private unnamed_addr constant [54 x i8] c"tpm_passthrough: error while transmitting data to TPM\00", align 1
@.str.28 = private unnamed_addr constant [51 x i8] c"tpm_passthrough: error while reading data from TPM\00", align 1
@.str.29 = private unnamed_addr constant [59 x i8] c"tpm_passthrough: received invalid response packet from TPM\00", align 1

; Function Attrs: nounwind sspstrong uwtable
define internal i32 @ldl_he_p(ptr noundef %ptr) #0 {
entry:
  %ptr.addr = alloca ptr, align 8
  %r = alloca i32, align 4
  store ptr %ptr, ptr %ptr.addr, align 8
  %0 = load ptr, ptr %ptr.addr, align 8
  call void @llvm.memcpy.p0.p0.i64(ptr align 4 %r, ptr align 1 %0, i64 4, i1 false)
  %1 = load i32, ptr %r, align 4
  ret i32 %1
}

; Function Attrs: nounwind sspstrong uwtable
define internal i32 @ldl_be_p(ptr noundef %ptr) #0 {
entry:
  %ptr.addr = alloca ptr, align 8
  store ptr %ptr, ptr %ptr.addr, align 8
  %0 = load ptr, ptr %ptr.addr, align 8
  %call = call i32 @ldl_he_p(ptr noundef %0)
  %1 = call i32 @llvm.bswap.i32(i32 %call)
  ret i32 %1
}

; Function Attrs: nounwind sspstrong uwtable
define internal zeroext i1 @qemu_loglevel_mask(i32 noundef %mask) #0 {
entry:
  %mask.addr = alloca i32, align 4
  store i32 %mask, ptr %mask.addr, align 4
  %0 = load i32, ptr @qemu_loglevel, align 4
  %1 = load i32, ptr %mask.addr, align 4
  %and = and i32 %0, %1
  %cmp = icmp ne i32 %and, 0
  ret i1 %cmp
}

; Function Attrs: nounwind sspstrong uwtable
define internal i32 @tpm_cmd_get_errcode(ptr noundef %b) #0 {
entry:
  %b.addr = alloca ptr, align 8
  store ptr %b, ptr %b.addr, align 8
  %0 = load ptr, ptr %b.addr, align 8
  %add.ptr = getelementptr i8, ptr %0, i64 6
  %call = call i32 @ldl_be_p(ptr noundef %add.ptr)
  ret i32 %call
}

; Function Attrs: nounwind sspstrong uwtable
define internal i32 @tpm_cmd_get_size(ptr noundef %b) #0 {
entry:
  %b.addr = alloca ptr, align 8
  store ptr %b, ptr %b.addr, align 8
  %0 = load ptr, ptr %b.addr, align 8
  %add.ptr = getelementptr i8, ptr %0, i64 2
  %call = call i32 @ldl_be_p(ptr noundef %add.ptr)
  ret i32 %call
}

; Function Attrs: nounwind sspstrong uwtable
define internal i32 @tpm_passthrough_unix_read(i32 noundef %fd, ptr noundef %buf, i32 noundef %len) #0 {
entry:
  %retval = alloca i32, align 4
  %fd.addr = alloca i32, align 4
  %buf.addr = alloca ptr, align 8
  %len.addr = alloca i32, align 4
  %ret = alloca i32, align 4
  store i32 %fd, ptr %fd.addr, align 4
  store ptr %buf, ptr %buf.addr, align 8
  store i32 %len, ptr %len.addr, align 4
  br label %reread

reread:                                           ; preds = %if.end, %entry
  %0 = load i32, ptr %fd.addr, align 4
  %1 = load ptr, ptr %buf.addr, align 8
  %2 = load i32, ptr %len.addr, align 4
  %conv = zext i32 %2 to i64
  %call = call i64 @read(i32 noundef %0, ptr noundef %1, i64 noundef %conv)
  %conv1 = trunc i64 %call to i32
  store i32 %conv1, ptr %ret, align 4
  %3 = load i32, ptr %ret, align 4
  %cmp = icmp slt i32 %3, 0
  br i1 %cmp, label %if.then, label %if.end10

if.then:                                          ; preds = %reread
  %call3 = call ptr @__errno_location() #9
  %4 = load i32, ptr %call3, align 4
  %cmp4 = icmp ne i32 %4, 4
  br i1 %cmp4, label %land.lhs.true, label %if.end

land.lhs.true:                                    ; preds = %if.then
  %call6 = call ptr @__errno_location() #9
  %5 = load i32, ptr %call6, align 4
  %cmp7 = icmp ne i32 %5, 11
  br i1 %cmp7, label %if.then9, label %if.end

if.then9:                                         ; preds = %land.lhs.true
  store i32 -1, ptr %retval, align 4
  br label %return

if.end:                                           ; preds = %land.lhs.true, %if.then
  br label %reread

if.end10:                                         ; preds = %reread
  %6 = load i32, ptr %ret, align 4
  store i32 %6, ptr %retval, align 4
  br label %return

return:                                           ; preds = %if.end10, %if.then9
  %7 = load i32, ptr %retval, align 4
  ret i32 %7
}

; Function Attrs: nounwind sspstrong uwtable
define internal void @_nocheck__trace_tpm_passthrough_handle_request(ptr noundef %cmd) #0 {
entry:
  %cmd.addr = alloca ptr, align 8
  %_now = alloca %struct.timeval, align 8
  store ptr %cmd, ptr %cmd.addr, align 8
  %0 = load i32, ptr @trace_events_enabled_count, align 4
  %tobool = icmp ne i32 %0, 0
  %lnot = xor i1 %tobool, true
  %lnot1 = xor i1 %lnot, true
  %lnot.ext = zext i1 %lnot1 to i32
  %conv = sext i32 %lnot.ext to i64
  %tobool2 = icmp ne i64 %conv, 0
  br i1 %tobool2, label %land.lhs.true, label %if.end11

land.lhs.true:                                    ; preds = %entry
  %1 = load i16, ptr @_TRACE_TPM_PASSTHROUGH_HANDLE_REQUEST_DSTATE, align 2
  %conv3 = zext i16 %1 to i32
  %tobool4 = icmp ne i32 %conv3, 0
  br i1 %tobool4, label %land.lhs.true5, label %if.end11

land.lhs.true5:                                   ; preds = %land.lhs.true
  %call = call zeroext i1 @qemu_loglevel_mask(i32 noundef 32768)
  br i1 %call, label %if.then, label %if.end11

if.then:                                          ; preds = %land.lhs.true5
  %2 = load i8, ptr @message_with_timestamp, align 1
  %tobool7 = trunc i8 %2 to i1
  br i1 %tobool7, label %if.then8, label %if.else

if.then8:                                         ; preds = %if.then
  %call9 = call i32 @gettimeofday(ptr noundef %_now, ptr noundef null) #10
  %call10 = call i32 @qemu_get_thread_id()
  %tv_sec = getelementptr inbounds %struct.timeval, ptr %_now, i32 0, i32 0
  %3 = load i64, ptr %tv_sec, align 8
  %tv_usec = getelementptr inbounds %struct.timeval, ptr %_now, i32 0, i32 1
  %4 = load i64, ptr %tv_usec, align 8
  %5 = load ptr, ptr %cmd.addr, align 8
  call void (ptr, ...) @qemu_log(ptr noundef @.str.25, i32 noundef %call10, i64 noundef %3, i64 noundef %4, ptr noundef %5)
  br label %if.end

if.else:                                          ; preds = %if.then
  %6 = load ptr, ptr %cmd.addr, align 8
  call void (ptr, ...) @qemu_log(ptr noundef @.str.26, ptr noundef %6)
  br label %if.end

if.end:                                           ; preds = %if.else, %if.then8
  br label %if.end11

if.end11:                                         ; preds = %if.end, %land.lhs.true5, %land.lhs.true, %entry
  ret void
}

; Function Attrs: nounwind sspstrong uwtable
define internal void @tpm_passthrough_unix_tx_bufs(ptr noundef %tpm_pt, ptr noundef %in, i32 noundef %in_len, ptr noundef %out, i32 noundef %out_len, ptr noundef %selftest_done, ptr noundef %errp) #0 {
entry:
  %tpm_pt.addr = alloca ptr, align 8
  %in.addr = alloca ptr, align 8
  %in_len.addr = alloca i32, align 4
  %out.addr = alloca ptr, align 8
  %out_len.addr = alloca i32, align 4
  %selftest_done.addr = alloca ptr, align 8
  %errp.addr = alloca ptr, align 8
  %ret = alloca i64, align 8
  %is_selftest = alloca i8, align 1
  store ptr %tpm_pt, ptr %tpm_pt.addr, align 8
  store ptr %in, ptr %in.addr, align 8
  store i32 %in_len, ptr %in_len.addr, align 4
  store ptr %out, ptr %out.addr, align 8
  store i32 %out_len, ptr %out_len.addr, align 4
  store ptr %selftest_done, ptr %selftest_done.addr, align 8
  store ptr %errp, ptr %errp.addr, align 8
  %0 = load ptr, ptr %tpm_pt.addr, align 8
  %tpm_op_canceled = getelementptr inbounds %struct.TPMPassthruState, ptr %0, i32 0, i32 5
  store i8 0, ptr %tpm_op_canceled, align 1
  %1 = load ptr, ptr %tpm_pt.addr, align 8
  %tpm_executing = getelementptr inbounds %struct.TPMPassthruState, ptr %1, i32 0, i32 4
  store i8 1, ptr %tpm_executing, align 4
  %2 = load ptr, ptr %selftest_done.addr, align 8
  store i8 0, ptr %2, align 1
  %3 = load ptr, ptr %in.addr, align 8
  %4 = load i32, ptr %in_len.addr, align 4
  %call = call zeroext i1 @tpm_util_is_selftest(ptr noundef %3, i32 noundef %4)
  %frombool = zext i1 %call to i8
  store i8 %frombool, ptr %is_selftest, align 1
  %5 = load ptr, ptr %tpm_pt.addr, align 8
  %tpm_fd = getelementptr inbounds %struct.TPMPassthruState, ptr %5, i32 0, i32 3
  %6 = load i32, ptr %tpm_fd, align 8
  %7 = load ptr, ptr %in.addr, align 8
  %8 = load i32, ptr %in_len.addr, align 4
  %conv = zext i32 %8 to i64
  %call1 = call i64 @qemu_write_full(i32 noundef %6, ptr noundef %7, i64 noundef %conv)
  store i64 %call1, ptr %ret, align 8
  %9 = load i64, ptr %ret, align 8
  %10 = load i32, ptr %in_len.addr, align 4
  %conv2 = zext i32 %10 to i64
  %cmp = icmp ne i64 %9, %conv2
  br i1 %cmp, label %if.then, label %if.end10

if.then:                                          ; preds = %entry
  %11 = load ptr, ptr %tpm_pt.addr, align 8
  %tpm_op_canceled4 = getelementptr inbounds %struct.TPMPassthruState, ptr %11, i32 0, i32 5
  %12 = load i8, ptr %tpm_op_canceled4, align 1
  %tobool = trunc i8 %12 to i1
  br i1 %tobool, label %lor.lhs.false, label %if.then8

lor.lhs.false:                                    ; preds = %if.then
  %call5 = call ptr @__errno_location() #9
  %13 = load i32, ptr %call5, align 4
  %cmp6 = icmp ne i32 %13, 125
  br i1 %cmp6, label %if.then8, label %if.end

if.then8:                                         ; preds = %lor.lhs.false, %if.then
  %14 = load ptr, ptr %errp.addr, align 8
  %call9 = call ptr @__errno_location() #9
  %15 = load i32, ptr %call9, align 4
  call void (ptr, ptr, i32, ptr, i32, ptr, ...) @error_setg_errno_internal(ptr noundef %14, ptr noundef @.str.2, i32 noundef 95, ptr noundef @__func__.tpm_passthrough_unix_tx_bufs, i32 noundef %15, ptr noundef @.str.27)
  br label %if.end

if.end:                                           ; preds = %if.then8, %lor.lhs.false
  br label %err_exit

if.end10:                                         ; preds = %entry
  %16 = load ptr, ptr %tpm_pt.addr, align 8
  %tpm_executing11 = getelementptr inbounds %struct.TPMPassthruState, ptr %16, i32 0, i32 4
  store i8 0, ptr %tpm_executing11, align 4
  %17 = load ptr, ptr %tpm_pt.addr, align 8
  %tpm_fd12 = getelementptr inbounds %struct.TPMPassthruState, ptr %17, i32 0, i32 3
  %18 = load i32, ptr %tpm_fd12, align 8
  %19 = load ptr, ptr %out.addr, align 8
  %20 = load i32, ptr %out_len.addr, align 4
  %call13 = call i32 @tpm_passthrough_unix_read(i32 noundef %18, ptr noundef %19, i32 noundef %20)
  %conv14 = sext i32 %call13 to i64
  store i64 %conv14, ptr %ret, align 8
  %21 = load i64, ptr %ret, align 8
  %cmp15 = icmp slt i64 %21, 0
  br i1 %cmp15, label %if.then17, label %if.else

if.then17:                                        ; preds = %if.end10
  %22 = load ptr, ptr %tpm_pt.addr, align 8
  %tpm_op_canceled18 = getelementptr inbounds %struct.TPMPassthruState, ptr %22, i32 0, i32 5
  %23 = load i8, ptr %tpm_op_canceled18, align 1
  %tobool19 = trunc i8 %23 to i1
  br i1 %tobool19, label %lor.lhs.false20, label %if.then24

lor.lhs.false20:                                  ; preds = %if.then17
  %call21 = call ptr @__errno_location() #9
  %24 = load i32, ptr %call21, align 4
  %cmp22 = icmp ne i32 %24, 125
  br i1 %cmp22, label %if.then24, label %if.end26

if.then24:                                        ; preds = %lor.lhs.false20, %if.then17
  %25 = load ptr, ptr %errp.addr, align 8
  %call25 = call ptr @__errno_location() #9
  %26 = load i32, ptr %call25, align 4
  call void (ptr, ptr, i32, ptr, i32, ptr, ...) @error_setg_errno_internal(ptr noundef %25, ptr noundef @.str.2, i32 noundef 106, ptr noundef @__func__.tpm_passthrough_unix_tx_bufs, i32 noundef %26, ptr noundef @.str.28)
  br label %if.end26

if.end26:                                         ; preds = %if.then24, %lor.lhs.false20
  br label %if.end37

if.else:                                          ; preds = %if.end10
  %27 = load i64, ptr %ret, align 8
  %cmp27 = icmp ult i64 %27, 10
  br i1 %cmp27, label %if.then34, label %lor.lhs.false29

lor.lhs.false29:                                  ; preds = %if.else
  %28 = load ptr, ptr %out.addr, align 8
  %call30 = call i32 @tpm_cmd_get_size(ptr noundef %28)
  %conv31 = zext i32 %call30 to i64
  %29 = load i64, ptr %ret, align 8
  %cmp32 = icmp ne i64 %conv31, %29
  br i1 %cmp32, label %if.then34, label %if.end36

if.then34:                                        ; preds = %lor.lhs.false29, %if.else
  store i64 -1, ptr %ret, align 8
  %30 = load ptr, ptr %errp.addr, align 8
  %call35 = call ptr @__errno_location() #9
  %31 = load i32, ptr %call35, align 4
  call void (ptr, ptr, i32, ptr, i32, ptr, ...) @error_setg_errno_internal(ptr noundef %30, ptr noundef @.str.2, i32 noundef 112, ptr noundef @__func__.tpm_passthrough_unix_tx_bufs, i32 noundef %31, ptr noundef @.str.29)
  br label %if.end36

if.end36:                                         ; preds = %if.then34, %lor.lhs.false29
  br label %if.end37

if.end37:                                         ; preds = %if.end36, %if.end26
  %32 = load i8, ptr %is_selftest, align 1
  %tobool38 = trunc i8 %32 to i1
  br i1 %tobool38, label %land.lhs.true, label %if.end47

land.lhs.true:                                    ; preds = %if.end37
  %33 = load i64, ptr %ret, align 8
  %cmp40 = icmp uge i64 %33, 10
  br i1 %cmp40, label %if.then42, label %if.end47

if.then42:                                        ; preds = %land.lhs.true
  %34 = load ptr, ptr %out.addr, align 8
  %call43 = call i32 @tpm_cmd_get_errcode(ptr noundef %34)
  %cmp44 = icmp eq i32 %call43, 0
  %35 = load ptr, ptr %selftest_done.addr, align 8
  %frombool46 = zext i1 %cmp44 to i8
  store i8 %frombool46, ptr %35, align 1
  br label %if.end47

if.end47:                                         ; preds = %if.then42, %land.lhs.true, %if.end37
  br label %err_exit

err_exit:                                         ; preds = %if.end47, %if.end
  %36 = load i64, ptr %ret, align 8
  %cmp48 = icmp slt i64 %36, 0
  br i1 %cmp48, label %if.then50, label %if.end51

if.then50:                                        ; preds = %err_exit
  %37 = load ptr, ptr %out.addr, align 8
  %38 = load i32, ptr %out_len.addr, align 4
  call void @tpm_util_write_fatal_error_response(ptr noundef %37, i32 noundef %38)
  br label %if.end51

if.end51:                                         ; preds = %if.then50, %err_exit
  %39 = load ptr, ptr %tpm_pt.addr, align 8
  %tpm_executing52 = getelementptr inbounds %struct.TPMPassthruState, ptr %39, i32 0, i32 4
  store i8 0, ptr %tpm_executing52, align 4
  ret void
}

; Function Attrs: nounwind sspstrong uwtable
define internal void @trace_tpm_passthrough_handle_request(ptr noundef %cmd) #0 {
entry:
  %cmd.addr = alloca ptr, align 8
  store ptr %cmd, ptr %cmd.addr, align 8
  %0 = load ptr, ptr %cmd.addr, align 8
  call void @_nocheck__trace_tpm_passthrough_handle_request(ptr noundef %0)
  ret void
}

; Function Attrs: nounwind sspstrong uwtable
define internal ptr @TPM_PASSTHROUGH(ptr noundef %obj) #0 {
entry:
  %obj.addr = alloca ptr, align 8
  store ptr %obj, ptr %obj.addr, align 8
  %0 = load ptr, ptr %obj.addr, align 8
  %call = call ptr @object_dynamic_cast_assert(ptr noundef %0, ptr noundef @.str, ptr noundef @.str.2, i32 noundef 38, ptr noundef @__func__.TPM_PASSTHROUGH)
  ret ptr %call
}

; Function Attrs: nounwind sspstrong uwtable
define internal void @tpm_passthrough_handle_request(ptr noundef %tb, ptr noundef %cmd, ptr noundef %errp) #0 {
entry:
  %tb.addr = alloca ptr, align 8
  %cmd.addr = alloca ptr, align 8
  %errp.addr = alloca ptr, align 8
  %tpm_pt = alloca ptr, align 8
  store ptr %tb, ptr %tb.addr, align 8
  store ptr %cmd, ptr %cmd.addr, align 8
  store ptr %errp, ptr %errp.addr, align 8
  %0 = load ptr, ptr %tb.addr, align 8
  %call = call ptr @TPM_PASSTHROUGH(ptr noundef %0)
  store ptr %call, ptr %tpm_pt, align 8
  %1 = load ptr, ptr %cmd.addr, align 8
  call void @trace_tpm_passthrough_handle_request(ptr noundef %1)
  %2 = load ptr, ptr %tpm_pt, align 8
  %3 = load ptr, ptr %cmd.addr, align 8
  %in = getelementptr inbounds %struct.TPMBackendCmd, ptr %3, i32 0, i32 1
  %4 = load ptr, ptr %in, align 8
  %5 = load ptr, ptr %cmd.addr, align 8
  %in_len = getelementptr inbounds %struct.TPMBackendCmd, ptr %5, i32 0, i32 2
  %6 = load i32, ptr %in_len, align 8
  %7 = load ptr, ptr %cmd.addr, align 8
  %out = getelementptr inbounds %struct.TPMBackendCmd, ptr %7, i32 0, i32 3
  %8 = load ptr, ptr %out, align 8
  %9 = load ptr, ptr %cmd.addr, align 8
  %out_len = getelementptr inbounds %struct.TPMBackendCmd, ptr %9, i32 0, i32 4
  %10 = load i32, ptr %out_len, align 8
  %11 = load ptr, ptr %cmd.addr, align 8
  %selftest_done = getelementptr inbounds %struct.TPMBackendCmd, ptr %11, i32 0, i32 5
  %12 = load ptr, ptr %errp.addr, align 8
  call void @tpm_passthrough_unix_tx_bufs(ptr noundef %2, ptr noundef %4, i32 noundef %6, ptr noundef %8, i32 noundef %10, ptr noundef %selftest_done, ptr noundef %12)
  ret void
}