; Function Attrs: nounwind sspstrong uwtable
define internal void @tpm_passthrough_handle_request(ptr noundef %tb, ptr noundef %cmd, ptr noundef %errp) #0 {
entry:
  %_now.i.i = alloca %struct.timeval, align 8
  %call.i = tail call ptr @object_dynamic_cast_assert(ptr noundef %tb, ptr noundef nonnull @.str, ptr noundef nonnull @.str.2, i32 noundef 38, ptr noundef nonnull @__func__.TPM_PASSTHROUGH) #11
  call void @llvm.lifetime.start.p0(i64 16, ptr nonnull %_now.i.i)
  %0 = load i32, ptr @trace_events_enabled_count, align 4
  %tobool.i.i = icmp ne i32 %0, 0
  %1 = load i16, ptr @_TRACE_TPM_PASSTHROUGH_HANDLE_REQUEST_DSTATE, align 2
  %tobool4.i.i = icmp ne i16 %1, 0
  %or.cond.i.i = select i1 %tobool.i.i, i1 %tobool4.i.i, i1 false
  br i1 %or.cond.i.i, label %land.lhs.true5.i.i, label %trace_tpm_passthrough_handle_request.exit

land.lhs.true5.i.i:                               ; preds = %entry
  %2 = load i32, ptr @qemu_loglevel, align 4
  %and.i.i.i = and i32 %2, 32768
  %cmp.i.not.i.i = icmp eq i32 %and.i.i.i, 0
  br i1 %cmp.i.not.i.i, label %trace_tpm_passthrough_handle_request.exit, label %if.then.i.i

if.then.i.i:                                      ; preds = %land.lhs.true5.i.i
  %3 = load i8, ptr @message_with_timestamp, align 1
  %tobool7.i.i = trunc i8 %3 to i1
  br i1 %tobool7.i.i, label %if.then8.i.i, label %if.else.i.i

if.then8.i.i:                                     ; preds = %if.then.i.i
  %call9.i.i = call i32 @gettimeofday(ptr noundef nonnull %_now.i.i, ptr noundef null) #11
  %call10.i.i = tail call i32 @qemu_get_thread_id() #11
  %4 = load i64, ptr %_now.i.i, align 8
  %tv_usec.i.i = getelementptr inbounds nuw i8, ptr %_now.i.i, i64 8
  %5 = load i64, ptr %tv_usec.i.i, align 8
  tail call void (ptr, ...) @qemu_log(ptr noundef nonnull @.str.25, i32 noundef %call10.i.i, i64 noundef %4, i64 noundef %5, ptr noundef %cmd) #11
  br label %trace_tpm_passthrough_handle_request.exit

if.else.i.i:                                      ; preds = %if.then.i.i
  tail call void (ptr, ...) @qemu_log(ptr noundef nonnull @.str.26, ptr noundef %cmd) #11
  br label %trace_tpm_passthrough_handle_request.exit

trace_tpm_passthrough_handle_request.exit:        ; preds = %entry, %land.lhs.true5.i.i, %if.then8.i.i, %if.else.i.i
  call void @llvm.lifetime.end.p0(i64 16, ptr nonnull %_now.i.i)
  %in = getelementptr inbounds nuw i8, ptr %cmd, i64 8
  %6 = load ptr, ptr %in, align 8
  %in_len = getelementptr inbounds nuw i8, ptr %cmd, i64 16
  %7 = load i32, ptr %in_len, align 8
  %out = getelementptr inbounds nuw i8, ptr %cmd, i64 24
  %8 = load ptr, ptr %out, align 8
  %out_len = getelementptr inbounds nuw i8, ptr %cmd, i64 32
  %9 = load i32, ptr %out_len, align 8
  %selftest_done = getelementptr inbounds nuw i8, ptr %cmd, i64 36
  %tpm_op_canceled.i = getelementptr inbounds nuw i8, ptr %call.i, i64 109
  store i8 0, ptr %tpm_op_canceled.i, align 1
  %tpm_executing.i = getelementptr inbounds nuw i8, ptr %call.i, i64 108
  store i8 1, ptr %tpm_executing.i, align 4
  store i8 0, ptr %selftest_done, align 1
  %call.i6 = tail call zeroext i1 @tpm_util_is_selftest(ptr noundef %6, i32 noundef %7) #11
  %tpm_fd.i = getelementptr inbounds nuw i8, ptr %call.i, i64 104
  %10 = load i32, ptr %tpm_fd.i, align 8
  %conv.i = zext i32 %7 to i64
  %call1.i = tail call i64 @qemu_write_full(i32 noundef %10, ptr noundef %6, i64 noundef %conv.i) #11
  %cmp.not.i = icmp eq i64 %call1.i, %conv.i
  br i1 %cmp.not.i, label %if.end10.i, label %if.then.i

if.then.i:                                        ; preds = %trace_tpm_passthrough_handle_request.exit
  %11 = load i8, ptr %tpm_op_canceled.i, align 1
  %tobool.i = trunc i8 %11 to i1
  %call5.i = tail call ptr @__errno_location() #13
  %.pre = load i32, ptr %call5.i, align 4
  %cmp6.not.i = icmp eq i32 %.pre, 125
  %or.cond = select i1 %tobool.i, i1 %cmp6.not.i, i1 false
  br i1 %or.cond, label %err_exit.i, label %if.then8.i

if.then8.i:                                       ; preds = %if.then.i
  tail call void (ptr, ptr, i32, ptr, i32, ptr, ...) @error_setg_errno_internal(ptr noundef %errp, ptr noundef nonnull @.str.2, i32 noundef 95, ptr noundef nonnull @__func__.tpm_passthrough_unix_tx_bufs, i32 noundef %.pre, ptr noundef nonnull @.str.27) #11
  br label %err_exit.i

if.end10.i:                                       ; preds = %trace_tpm_passthrough_handle_request.exit
  store i8 0, ptr %tpm_executing.i, align 4
  %12 = load i32, ptr %tpm_fd.i, align 8
  %conv.i.i = zext i32 %9 to i64
  %call2.i.i = tail call i64 @read(i32 noundef %12, ptr noundef %8, i64 noundef %conv.i.i) #11
  %conv13.i.i = trunc i64 %call2.i.i to i32
  %cmp4.i.i = icmp slt i32 %conv13.i.i, 0
  br i1 %cmp4.i.i, label %if.then.lr.ph.i.i, label %if.else.i

if.then.lr.ph.i.i:                                ; preds = %if.end10.i
  %call3.i.i = tail call ptr @__errno_location() #13
  br label %if.then.i.i7

if.then.i.i7:                                     ; preds = %if.end.i.i, %if.then.lr.ph.i.i
  %13 = load i32, ptr %call3.i.i, align 4
  switch i32 %13, label %if.then17.i [
    i32 4, label %if.end.i.i
    i32 11, label %if.end.i.i
  ]

if.end.i.i:                                       ; preds = %if.then.i.i7, %if.then.i.i7
  %call.i.i = tail call i64 @read(i32 noundef %12, ptr noundef %8, i64 noundef %conv.i.i) #11
  %conv1.i.i = trunc i64 %call.i.i to i32
  %cmp.i.i = icmp slt i32 %conv1.i.i, 0
  br i1 %cmp.i.i, label %if.then.i.i7, label %if.else.i

if.then17.i:                                      ; preds = %if.then.i.i7
  %14 = load i8, ptr %tpm_op_canceled.i, align 1
  %tobool19.i = trunc i8 %14 to i1
  %cmp22.not.i = icmp eq i32 %13, 125
  %or.cond.i = and i1 %cmp22.not.i, %tobool19.i
  br i1 %or.cond.i, label %if.end37.i, label %if.then24.i

if.then24.i:                                      ; preds = %if.then17.i
  tail call void (ptr, ptr, i32, ptr, i32, ptr, ...) @error_setg_errno_internal(ptr noundef %errp, ptr noundef nonnull @.str.2, i32 noundef 106, ptr noundef nonnull @__func__.tpm_passthrough_unix_tx_bufs, i32 noundef %13, ptr noundef nonnull @.str.28) #11
  br label %if.end37.i

if.else.i:                                        ; preds = %if.end.i.i, %if.end10.i
  %retval.0.i.ph.i = phi i32 [ %conv13.i.i, %if.end10.i ], [ %conv1.i.i, %if.end.i.i ]
  %cmp27.i = icmp samesign ult i32 %retval.0.i.ph.i, 10
  br i1 %cmp27.i, label %if.then34.i, label %lor.lhs.false29.i

lor.lhs.false29.i:                                ; preds = %if.else.i
  %conv1425.i = zext nneg i32 %retval.0.i.ph.i to i64
  %15 = getelementptr i8, ptr %8, i64 2
  %out.val.i = load i32, ptr %15, align 1
  %16 = tail call i32 @llvm.bswap.i32(i32 %out.val.i)
  %cmp32.not.i = icmp eq i32 %16, %retval.0.i.ph.i
  br i1 %cmp32.not.i, label %if.end37.i, label %if.then34.i

if.then34.i:                                      ; preds = %lor.lhs.false29.i, %if.else.i
  %call35.i = tail call ptr @__errno_location() #13
  %17 = load i32, ptr %call35.i, align 4
  tail call void (ptr, ptr, i32, ptr, i32, ptr, ...) @error_setg_errno_internal(ptr noundef %errp, ptr noundef nonnull @.str.2, i32 noundef 112, ptr noundef nonnull @__func__.tpm_passthrough_unix_tx_bufs, i32 noundef %17, ptr noundef nonnull @.str.29) #11
  br label %if.end37.i

if.end37.i:                                       ; preds = %if.then34.i, %lor.lhs.false29.i, %if.then24.i, %if.then17.i
  %ret.1.i = phi i64 [ -1, %if.then24.i ], [ -1, %if.then34.i ], [ %conv1425.i, %lor.lhs.false29.i ], [ -1, %if.then17.i ]
  br i1 %call.i6, label %if.then42.i, label %err_exit.i

if.then42.i:                                      ; preds = %if.end37.i
  %18 = getelementptr i8, ptr %8, i64 6
  %out.val23.i = load i32, ptr %18, align 1
  %cmp44.i = icmp eq i32 %out.val23.i, 0
  %frombool46.i = zext i1 %cmp44.i to i8
  store i8 %frombool46.i, ptr %selftest_done, align 1
  br label %err_exit.i

err_exit.i:                                       ; preds = %if.then.i, %if.then42.i, %if.end37.i, %if.then8.i
  %ret.0.i = phi i64 [ %call1.i, %if.then8.i ], [ %ret.1.i, %if.then42.i ], [ %ret.1.i, %if.end37.i ], [ %call1.i, %if.then.i ]
  %cmp48.i = icmp slt i64 %ret.0.i, 0
  br i1 %cmp48.i, label %if.then50.i, label %tpm_passthrough_unix_tx_bufs.exit

if.then50.i:                                      ; preds = %err_exit.i
  tail call void @tpm_util_write_fatal_error_response(ptr noundef %8, i32 noundef %9) #11
  br label %tpm_passthrough_unix_tx_bufs.exit

tpm_passthrough_unix_tx_bufs.exit:                ; preds = %err_exit.i, %if.then50.i
  store i8 0, ptr %tpm_executing.i, align 4
  ret void
}